; ModuleID = 'source-C-CXX/12/1780.cpp'
source_filename = "source-C-CXX/12/1780.cpp"
target datalayout = "e-m:e-p270:32:32-p271:32:32-p272:64:64-i64:64-f80:128-n8:16:32:64-S128"
target triple = "x86_64-pc-linux-gnu"

%"class.std::ios_base::Init" = type { i8 }
%"class.std::basic_istream" = type { i32 (...)**, i64, %"class.std::basic_ios" }
%"class.std::basic_ios" = type { %"class.std::ios_base", %"class.std::basic_ostream"*, i8, i8, %"class.std::basic_streambuf"*, %"class.std::ctype"*, %"class.std::num_put"*, %"class.std::num_get"* }
%"class.std::ios_base" = type { i32 (...)**, i64, i64, i32, i32, i32, %"struct.std::ios_base::_Callback_list"*, %"struct.std::ios_base::_Words", [8 x %"struct.std::ios_base::_Words"], i32, %"struct.std::ios_base::_Words"*, %"class.std::locale" }
%"struct.std::ios_base::_Callback_list" = type { %"struct.std::ios_base::_Callback_list"*, void (i32, %"class.std::ios_base"*, i32)*, i32, i32 }
%"struct.std::ios_base::_Words" = type { i8*, i64 }
%"class.std::locale" = type { %"class.std::locale::_Impl"* }
%"class.std::locale::_Impl" = type { i32, %"class.std::locale::facet"**, i64, %"class.std::locale::facet"**, i8** }
%"class.std::locale::facet" = type <{ i32 (...)**, i32, [4 x i8] }>
%"class.std::basic_ostream" = type { i32 (...)**, %"class.std::basic_ios" }
%"class.std::basic_streambuf" = type { i32 (...)**, i8*, i8*, i8*, i8*, i8*, i8*, %"class.std::locale" }
%"class.std::ctype" = type <{ %"class.std::locale::facet.base", [4 x i8], %struct.__locale_struct*, i8, [7 x i8], i32*, i32*, i16*, i8, [256 x i8], [256 x i8], i8, [6 x i8] }>
%"class.std::locale::facet.base" = type <{ i32 (...)**, i32 }>
%struct.__locale_struct = type { [13 x %struct.__locale_data*], i16*, i32*, i32*, [13 x i8*] }
%struct.__locale_data = type opaque
%"class.std::num_put" = type { %"class.std::locale::facet.base", [4 x i8] }
%"class.std::num_get" = type { %"class.std::locale::facet.base", [4 x i8] }

@_ZStL8__ioinit = internal global %"class.std::ios_base::Init" zeroinitializer, align 1
@__dso_handle = external hidden global i8
@_ZSt3cin = external global %"class.std::basic_istream", align 8
@_ZSt4cout = external global %"class.std::basic_ostream", align 8
@llvm.global_ctors = appending global [1 x { i32, void ()*, i8* }] [{ i32, void ()*, i8* } { i32 65535, void ()* @_GLOBAL__sub_I_1780.cpp, i8* null }]

declare void @_ZNSt8ios_base4InitC1Ev(%"class.std::ios_base::Init"* nonnull align 1 dereferenceable(1)) unnamed_addr #0

; Function Attrs: nounwind
declare void @_ZNSt8ios_base4InitD1Ev(%"class.std::ios_base::Init"* nonnull align 1 dereferenceable(1)) unnamed_addr #1

; Function Attrs: nofree nounwind
declare i32 @__cxa_atexit(void (i8*)*, i8*, i8*) local_unnamed_addr #2

; Function Attrs: mustprogress norecurse sspstrong uwtable
define dso_local i32 @main() local_unnamed_addr #3 {
  %1 = alloca i8, align 1
  %2 = alloca i32, align 4
  %3 = alloca i32, align 4
  %4 = bitcast i32* %2 to i8*
  call void @llvm.lifetime.start.p0i8(i64 4, i8* nonnull %4) #7
  %5 = bitcast i32* %3 to i8*
  call void @llvm.lifetime.start.p0i8(i64 4, i8* nonnull %5) #7
  %6 = call nonnull align 8 dereferenceable(16) %"class.std::basic_istream"* @_ZNSirsERi(%"class.std::basic_istream"* nonnull align 8 dereferenceable(16) @_ZSt3cin, i32* nonnull align 4 dereferenceable(4) %2)
  %7 = load i32, i32* %2, align 4, !tbaa !5
  %8 = zext i32 %7 to i64
  %9 = call i8* @llvm.stacksave()
  %10 = alloca i32, i64 %8, align 16
  %11 = load i32, i32* %2, align 4, !tbaa !5
  %12 = icmp sgt i32 %11, 0
  br i1 %12, label %19, label %67

13:                                               ; preds = %19
  %14 = icmp sgt i32 %25, 0
  br i1 %14, label %15, label %67

15:                                               ; preds = %13
  %16 = zext i32 %25 to i64
  %17 = zext i32 %25 to i64
  %18 = add nsw i64 %17, -2
  br label %32

19:                                               ; preds = %0, %19
  %20 = phi i64 [ %24, %19 ], [ 0, %0 ]
  %21 = call nonnull align 8 dereferenceable(16) %"class.std::basic_istream"* @_ZNSirsERi(%"class.std::basic_istream"* nonnull align 8 dereferenceable(16) @_ZSt3cin, i32* nonnull align 4 dereferenceable(4) %3)
  %22 = load i32, i32* %3, align 4, !tbaa !5
  %23 = getelementptr inbounds i32, i32* %10, i64 %20
  store i32 %22, i32* %23, align 4, !tbaa !5
  %24 = add nuw nsw i64 %20, 1
  %25 = load i32, i32* %2, align 4, !tbaa !5
  %26 = sext i32 %25 to i64
  %27 = icmp slt i64 %24, %26
  br i1 %27, label %19, label %13, !llvm.loop !9

28:                                               ; preds = %51, %91, %32
  %29 = add nuw nsw i64 %34, 1
  %30 = icmp eq i64 %35, %17
  br i1 %30, label %31, label %32, !llvm.loop !11

31:                                               ; preds = %28
  br i1 %14, label %68, label %67

32:                                               ; preds = %15, %28
  %33 = phi i64 [ 0, %15 ], [ %35, %28 ]
  %34 = phi i64 [ 1, %15 ], [ %29, %28 ]
  %35 = add nuw nsw i64 %33, 1
  %36 = getelementptr inbounds i32, i32* %10, i64 %33
  %37 = icmp ult i64 %35, %16
  br i1 %37, label %38, label %28

38:                                               ; preds = %32
  %39 = xor i64 %33, -1
  %40 = add nsw i64 %39, %17
  %41 = and i64 %40, 1
  %42 = icmp eq i64 %41, 0
  br i1 %42, label %51, label %43

43:                                               ; preds = %38
  %44 = getelementptr inbounds i32, i32* %10, i64 %34
  %45 = load i32, i32* %44, align 4, !tbaa !5
  %46 = load i32, i32* %36, align 4, !tbaa !5
  %47 = icmp eq i32 %45, %46
  br i1 %47, label %48, label %49

48:                                               ; preds = %43
  store i32 101, i32* %44, align 4, !tbaa !5
  br label %49

49:                                               ; preds = %48, %43
  %50 = add nuw nsw i64 %34, 1
  br label %51

51:                                               ; preds = %49, %38
  %52 = phi i64 [ %50, %49 ], [ %34, %38 ]
  %53 = icmp eq i64 %18, %33
  br i1 %53, label %28, label %54

54:                                               ; preds = %51, %91
  %55 = phi i64 [ %92, %91 ], [ %52, %51 ]
  %56 = getelementptr inbounds i32, i32* %10, i64 %55
  %57 = load i32, i32* %56, align 4, !tbaa !5
  %58 = load i32, i32* %36, align 4, !tbaa !5
  %59 = icmp eq i32 %57, %58
  br i1 %59, label %60, label %61

60:                                               ; preds = %54
  store i32 101, i32* %56, align 4, !tbaa !5
  br label %61

61:                                               ; preds = %54, %60
  %62 = add nuw nsw i64 %55, 1
  %63 = getelementptr inbounds i32, i32* %10, i64 %62
  %64 = load i32, i32* %63, align 4, !tbaa !5
  %65 = load i32, i32* %36, align 4, !tbaa !5
  %66 = icmp eq i32 %64, %65
  br i1 %66, label %90, label %91

67:                                               ; preds = %84, %13, %0, %31
  call void @llvm.stackrestore(i8* %9)
  call void @llvm.lifetime.end.p0i8(i64 4, i8* nonnull %5) #7
  call void @llvm.lifetime.end.p0i8(i64 4, i8* nonnull %4) #7
  ret i32 0

68:                                               ; preds = %31, %84
  %69 = phi i64 [ %86, %84 ], [ 0, %31 ]
  %70 = phi i32 [ %85, %84 ], [ 1, %31 ]
  %71 = getelementptr inbounds i32, i32* %10, i64 %69
  %72 = load i32, i32* %71, align 4, !tbaa !5
  %73 = icmp slt i32 %72, 100
  %74 = icmp eq i32 %70, 1
  %75 = select i1 %73, i1 %74, i1 false
  br i1 %75, label %81, label %76

76:                                               ; preds = %68
  %77 = icmp ne i32 %70, 1
  %78 = select i1 %73, i1 %77, i1 false
  br i1 %78, label %79, label %84

79:                                               ; preds = %76
  call void @llvm.lifetime.start.p0i8(i64 1, i8* nonnull %1)
  store i8 32, i8* %1, align 1, !tbaa !12
  %80 = call nonnull align 8 dereferenceable(8) %"class.std::basic_ostream"* @_ZSt16__ostream_insertIcSt11char_traitsIcEERSt13basic_ostreamIT_T0_ES6_PKS3_l(%"class.std::basic_ostream"* nonnull align 8 dereferenceable(8) @_ZSt4cout, i8* nonnull %1, i64 1)
  call void @llvm.lifetime.end.p0i8(i64 1, i8* nonnull %1)
  br label %81

81:                                               ; preds = %68, %79
  %82 = phi %"class.std::basic_ostream"* [ %80, %79 ], [ @_ZSt4cout, %68 ]
  %83 = call nonnull align 8 dereferenceable(8) %"class.std::basic_ostream"* @_ZNSolsEi(%"class.std::basic_ostream"* nonnull align 8 dereferenceable(8) %82, i32 %72)
  br label %84

84:                                               ; preds = %81, %76
  %85 = phi i32 [ %70, %76 ], [ 2, %81 ]
  %86 = add nuw nsw i64 %69, 1
  %87 = load i32, i32* %2, align 4, !tbaa !5
  %88 = sext i32 %87 to i64
  %89 = icmp slt i64 %86, %88
  br i1 %89, label %68, label %67, !llvm.loop !13

90:                                               ; preds = %61
  store i32 101, i32* %63, align 4, !tbaa !5
  br label %91

91:                                               ; preds = %90, %61
  %92 = add nuw nsw i64 %55, 2
  %93 = icmp eq i64 %92, %17
  br i1 %93, label %28, label %54, !llvm.loop !14
}

; Function Attrs: argmemonly mustprogress nofree nosync nounwind willreturn
declare void @llvm.lifetime.start.p0i8(i64 immarg, i8* nocapture) #4

declare nonnull align 8 dereferenceable(16) %"class.std::basic_istream"* @_ZNSirsERi(%"class.std::basic_istream"* nonnull align 8 dereferenceable(16), i32* nonnull align 4 dereferenceable(4)) local_unnamed_addr #0

; Function Attrs: mustprogress nofree nosync nounwind willreturn
declare i8* @llvm.stacksave() #5

; Function Attrs: argmemonly mustprogress nofree nosync nounwind willreturn
declare void @llvm.lifetime.end.p0i8(i64 immarg, i8* nocapture) #4

declare nonnull align 8 dereferenceable(8) %"class.std::basic_ostream"* @_ZNSolsEi(%"class.std::basic_ostream"* nonnull align 8 dereferenceable(8), i32) local_unnamed_addr #0

; Function Attrs: mustprogress nofree nosync nounwind willreturn
declare void @llvm.stackrestore(i8*) #5

declare nonnull align 8 dereferenceable(8) %"class.std::basic_ostream"* @_ZSt16__ostream_insertIcSt11char_traitsIcEERSt13basic_ostreamIT_T0_ES6_PKS3_l(%"class.std::basic_ostream"* nonnull align 8 dereferenceable(8), i8*, i64) local_unnamed_addr #0

; Function Attrs: sspstrong uwtable
define internal void @_GLOBAL__sub_I_1780.cpp() #6 section ".text.startup" {
  tail call void @_ZNSt8ios_base4InitC1Ev(%"class.std::ios_base::Init"* nonnull align 1 dereferenceable(1) @_ZStL8__ioinit)
  %1 = tail call i32 @__cxa_atexit(void (i8*)* bitcast (void (%"class.std::ios_base::Init"*)* @_ZNSt8ios_base4InitD1Ev to void (i8*)*), i8* getelementptr inbounds (%"class.std::ios_base::Init", %"class.std::ios_base::Init"* @_ZStL8__ioinit, i64 0, i32 0), i8* nonnull @__dso_handle) #7
  ret void
}


!llvm.module.flags = !{!0, !1, !2, !3}
!llvm.ident = !{!4}

!0 = !{i32 1, !"wchar_size", i32 4}
!1 = !{i32 7, !"PIC Level", i32 2}
!2 = !{i32 7, !"PIE Level", i32 2}
!3 = !{i32 7, !"uwtable", i32 1}
!4 = !{!"clang version 13.0.0"}
!5 = !{!6, !6, i64 0}
!6 = !{!"int", !7, i64 0}
!7 = !{!"omnipotent char", !8, i64 0}
!8 = !{!"Simple C++ TBAA"}
!9 = distinct !{!9, !10}
!10 = !{!"llvm.loop.mustprogress"}
!11 = distinct !{!11, !10}
!12 = !{!7, !7, i64 0}
!13 = distinct !{!13, !10}
!14 = distinct !{!14, !10}
